target datalayout = "e-m:e-p270:32:32-p271:32:32-p272:64:64-i64:64-i128:128-f80:128-n8:16:32:64-S128"
target triple = "x86_64-pc-linux-gnu"

%struct.pg_locale_struct = type { i8, i8, i8, i8, i8, ptr, %union.anon }
%union.anon = type { %struct.anon }
%struct.anon = type { ptr, i8 }

@.str = private unnamed_addr constant [59 x i8] c"could not determine which collation to use for %s function\00", align 1
@.str.2 = private unnamed_addr constant [56 x i8] c"Use the COLLATE clause to set the collation explicitly.\00", align 1
@.str.3 = private unnamed_addr constant [13 x i8] c"formatting.c\00", align 1
@.str.5 = private unnamed_addr constant [10 x i8] c"initcap()\00", align 1
@__func__.str_initcap = private unnamed_addr constant [12 x i8] c"str_initcap\00", align 1

; Function Attrs: nounwind uwtable
define dso_local ptr @asc_initcap(ptr noundef %0, i64 noundef %1) #0 {
  %3 = alloca ptr, align 8
  %4 = alloca ptr, align 8
  %5 = alloca i64, align 8
  %6 = alloca ptr, align 8
  %7 = alloca ptr, align 8
  %8 = alloca i32, align 4
  %9 = alloca i32, align 4
  %10 = alloca i8, align 1
  store ptr %0, ptr %4, align 8
  store i64 %1, ptr %5, align 8
  call void @llvm.lifetime.start.p0(i64 8, ptr %6) #11
  call void @llvm.lifetime.start.p0(i64 8, ptr %7) #11
  call void @llvm.lifetime.start.p0(i64 4, ptr %8) #11
  store i32 0, ptr %8, align 4
  %11 = load ptr, ptr %4, align 8
  %12 = icmp ne ptr %11, null
  br i1 %12, label %14, label %13

13:                                               ; preds = %2
  store ptr null, ptr %3, align 8
  store i32 1, ptr %9, align 4
  br label %70

14:                                               ; preds = %2
  %15 = load ptr, ptr %4, align 8
  %16 = load i64, ptr %5, align 8
  %17 = call ptr @pnstrdup(ptr noundef %15, i64 noundef %16)
  store ptr %17, ptr %6, align 8
  %18 = load ptr, ptr %6, align 8
  store ptr %18, ptr %7, align 8
  br label %19

19:                                               ; preds = %65, %14
  %20 = load ptr, ptr %7, align 8
  %21 = load i8, ptr %20, align 1
  %22 = icmp ne i8 %21, 0
  br i1 %22, label %23, label %68

23:                                               ; preds = %19
  call void @llvm.lifetime.start.p0(i64 1, ptr %10) #11
  %24 = load i32, ptr %8, align 4
  %25 = icmp ne i32 %24, 0
  br i1 %25, label %26, label %31

26:                                               ; preds = %23
  %27 = load ptr, ptr %7, align 8
  %28 = load i8, ptr %27, align 1
  %29 = call zeroext i8 @pg_ascii_tolower(i8 noundef zeroext %28)
  store i8 %29, ptr %10, align 1
  %30 = load ptr, ptr %7, align 8
  store i8 %29, ptr %30, align 1
  br label %36

31:                                               ; preds = %23
  %32 = load ptr, ptr %7, align 8
  %33 = load i8, ptr %32, align 1
  %34 = call zeroext i8 @pg_ascii_toupper(i8 noundef zeroext %33)
  store i8 %34, ptr %10, align 1
  %35 = load ptr, ptr %7, align 8
  store i8 %34, ptr %35, align 1
  br label %36

36:                                               ; preds = %31, %26
  %37 = load i8, ptr %10, align 1
  %38 = sext i8 %37 to i32
  %39 = icmp sge i32 %38, 65
  br i1 %39, label %40, label %44

40:                                               ; preds = %36
  %41 = load i8, ptr %10, align 1
  %42 = sext i8 %41 to i32
  %43 = icmp sle i32 %42, 90
  br i1 %43, label %62, label %44

44:                                               ; preds = %40, %36
  %45 = load i8, ptr %10, align 1
  %46 = sext i8 %45 to i32
  %47 = icmp sge i32 %46, 97
  br i1 %47, label %48, label %52

48:                                               ; preds = %44
  %49 = load i8, ptr %10, align 1
  %50 = sext i8 %49 to i32
  %51 = icmp sle i32 %50, 122
  br i1 %51, label %62, label %52

52:                                               ; preds = %48, %44
  %53 = load i8, ptr %10, align 1
  %54 = sext i8 %53 to i32
  %55 = icmp sge i32 %54, 48
  br i1 %55, label %56, label %60

56:                                               ; preds = %52
  %57 = load i8, ptr %10, align 1
  %58 = sext i8 %57 to i32
  %59 = icmp sle i32 %58, 57
  br label %60

60:                                               ; preds = %56, %52
  %61 = phi i1 [ false, %52 ], [ %59, %56 ]
  br label %62

62:                                               ; preds = %60, %48, %40
  %63 = phi i1 [ true, %48 ], [ true, %40 ], [ %61, %60 ]
  %64 = zext i1 %63 to i32
  store i32 %64, ptr %8, align 4
  call void @llvm.lifetime.end.p0(i64 1, ptr %10) #11
  br label %65

65:                                               ; preds = %62
  %66 = load ptr, ptr %7, align 8
  %67 = getelementptr inbounds nuw i8, ptr %66, i32 1
  store ptr %67, ptr %7, align 8
  br label %19, !llvm.loop !9

68:                                               ; preds = %19
  %69 = load ptr, ptr %6, align 8
  store ptr %69, ptr %3, align 8
  store i32 1, ptr %9, align 4
  br label %70

70:                                               ; preds = %68, %13
  call void @llvm.lifetime.end.p0(i64 4, ptr %8) #11
  call void @llvm.lifetime.end.p0(i64 8, ptr %7) #11
  call void @llvm.lifetime.end.p0(i64 8, ptr %6) #11
  %71 = load ptr, ptr %3, align 8
  ret ptr %71
}

; Function Attrs: nounwind uwtable
define dso_local ptr @str_initcap(ptr noundef %0, i64 noundef %1, i32 noundef %2) #0 {
  %4 = alloca ptr, align 8
  %5 = alloca ptr, align 8
  %6 = alloca i64, align 8
  %7 = alloca i32, align 4
  %8 = alloca ptr, align 8
  %9 = alloca ptr, align 8
  %10 = alloca i32, align 4
  %11 = alloca ptr, align 8
  %12 = alloca i64, align 8
  %13 = alloca i64, align 8
  %14 = alloca ptr, align 8
  %15 = alloca i64, align 8
  store ptr %0, ptr %5, align 8
  store i64 %1, ptr %6, align 8
  store i32 %2, ptr %7, align 4
  call void @llvm.lifetime.start.p0(i64 8, ptr %8) #11
  call void @llvm.lifetime.start.p0(i64 8, ptr %9) #11
  %16 = load ptr, ptr %5, align 8
  %17 = icmp ne ptr %16, null
  br i1 %17, label %19, label %18

18:                                               ; preds = %3
  store ptr null, ptr %4, align 8
  store i32 1, ptr %10, align 4
  br label %79

19:                                               ; preds = %3
  %20 = load i32, ptr %7, align 4
  %21 = icmp ne i32 %20, 0
  br i1 %21, label %35, label %22

22:                                               ; preds = %19
  br label %23

23:                                               ; preds = %22
  br i1 true, label %24, label %26

24:                                               ; preds = %23
  %25 = call zeroext i1 @errstart_cold(i32 noundef 21, ptr noundef null) #12
  br i1 %25, label %28, label %32

26:                                               ; preds = %23
  %27 = call zeroext i1 @errstart(i32 noundef 21, ptr noundef null)
  br i1 %27, label %28, label %32

28:                                               ; preds = %26, %24
  %29 = call i32 @errcode(i32 noundef 34209924)
  %30 = call i32 (ptr, ...) @errmsg(ptr noundef @.str, ptr noundef @.str.5)
  %31 = call i32 (ptr, ...) @errhint(ptr noundef @.str.2)
  call void @errfinish(ptr noundef @.str.3, i32 noundef 1783, ptr noundef @__func__.str_initcap)
  br label %32

32:                                               ; preds = %28, %26, %24
  unreachable

33:                                               ; No predecessors!
  br label %34

34:                                               ; preds = %33
  br label %35

35:                                               ; preds = %34, %19
  %36 = load i32, ptr %7, align 4
  %37 = call ptr @pg_newlocale_from_collation(i32 noundef %36)
  store ptr %37, ptr %9, align 8
  %38 = load ptr, ptr %9, align 8
  %39 = getelementptr inbounds nuw %struct.pg_locale_struct, ptr %38, i32 0, i32 3
  %40 = load i8, ptr %39, align 1, !range !4, !noundef !5
  %41 = trunc i8 %40 to i1
  br i1 %41, label %42, label %46

42:                                               ; preds = %35
  %43 = load ptr, ptr %5, align 8
  %44 = load i64, ptr %6, align 8
  %45 = call ptr @asc_initcap(ptr noundef %43, i64 noundef %44)
  store ptr %45, ptr %8, align 8
  br label %77

46:                                               ; preds = %35
  call void @llvm.lifetime.start.p0(i64 8, ptr %11) #11
  %47 = load ptr, ptr %5, align 8
  store ptr %47, ptr %11, align 8
  call void @llvm.lifetime.start.p0(i64 8, ptr %12) #11
  %48 = load i64, ptr %6, align 8
  store i64 %48, ptr %12, align 8
  call void @llvm.lifetime.start.p0(i64 8, ptr %13) #11
  call void @llvm.lifetime.start.p0(i64 8, ptr %14) #11
  call void @llvm.lifetime.start.p0(i64 8, ptr %15) #11
  %49 = load i64, ptr %12, align 8
  %50 = add i64 %49, 1
  store i64 %50, ptr %13, align 8
  %51 = load i64, ptr %13, align 8
  %52 = call ptr @palloc(i64 noundef %51)
  store ptr %52, ptr %14, align 8
  %53 = load ptr, ptr %14, align 8
  %54 = load i64, ptr %13, align 8
  %55 = load ptr, ptr %11, align 8
  %56 = load i64, ptr %12, align 8
  %57 = load ptr, ptr %9, align 8
  %58 = call i64 @pg_strtitle(ptr noundef %53, i64 noundef %54, ptr noundef %55, i64 noundef %56, ptr noundef %57)
  store i64 %58, ptr %15, align 8
  %59 = load i64, ptr %15, align 8
  %60 = add i64 %59, 1
  %61 = load i64, ptr %13, align 8
  %62 = icmp ugt i64 %60, %61
  br i1 %62, label %63, label %75

63:                                               ; preds = %46
  %64 = load i64, ptr %15, align 8
  %65 = add i64 %64, 1
  store i64 %65, ptr %13, align 8
  %66 = load ptr, ptr %14, align 8
  %67 = load i64, ptr %13, align 8
  %68 = call ptr @repalloc(ptr noundef %66, i64 noundef %67)
  store ptr %68, ptr %14, align 8
  %69 = load ptr, ptr %14, align 8
  %70 = load i64, ptr %13, align 8
  %71 = load ptr, ptr %11, align 8
  %72 = load i64, ptr %12, align 8
  %73 = load ptr, ptr %9, align 8
  %74 = call i64 @pg_strtitle(ptr noundef %69, i64 noundef %70, ptr noundef %71, i64 noundef %72, ptr noundef %73)
  store i64 %74, ptr %15, align 8
  br label %75

75:                                               ; preds = %63, %46
  %76 = load ptr, ptr %14, align 8
  store ptr %76, ptr %8, align 8
  call void @llvm.lifetime.end.p0(i64 8, ptr %15) #11
  call void @llvm.lifetime.end.p0(i64 8, ptr %14) #11
  call void @llvm.lifetime.end.p0(i64 8, ptr %13) #11
  call void @llvm.lifetime.end.p0(i64 8, ptr %12) #11
  call void @llvm.lifetime.end.p0(i64 8, ptr %11) #11
  br label %77

77:                                               ; preds = %75, %42
  %78 = load ptr, ptr %8, align 8
  store ptr %78, ptr %4, align 8
  store i32 1, ptr %10, align 4
  br label %79

79:                                               ; preds = %77, %18
  call void @llvm.lifetime.end.p0(i64 8, ptr %9) #11
  call void @llvm.lifetime.end.p0(i64 8, ptr %8) #11
  %80 = load ptr, ptr %4, align 8
  ret ptr %80
}