; Function Attrs: nounwind uwtable
define dso_local noundef ptr @str_initcap(ptr noundef %0, i64 noundef %1, i32 noundef %2) local_unnamed_addr #0 {
  %.not = icmp eq ptr %0, null
  br i1 %.not, label %asc_initcap.exit, label %4

4:                                                ; preds = %3
  %.not32 = icmp eq i32 %2, 0
  br i1 %.not32, label %5, label %10

5:                                                ; preds = %4
  %6 = tail call zeroext i1 @errstart_cold(i32 noundef 21, ptr noundef null) #17
  tail call void @llvm.assume(i1 %6)
  %7 = tail call i32 @errcode(i32 noundef 34209924) #18
  %8 = tail call i32 (ptr, ...) @errmsg(ptr noundef nonnull @.str, ptr noundef nonnull @.str.5) #18
  %9 = tail call i32 (ptr, ...) @errhint(ptr noundef nonnull @.str.2) #18
  tail call void @errfinish(ptr noundef nonnull @.str.3, i32 noundef 1783, ptr noundef nonnull @__func__.str_initcap) #18
  unreachable

10:                                               ; preds = %4
  %11 = tail call ptr @pg_newlocale_from_collation(i32 noundef %2) #18
  %12 = getelementptr inbounds nuw i8, ptr %11, i64 3
  %13 = load i8, ptr %12, align 1, !range !4, !noundef !5
  %14 = trunc nuw i8 %13 to i1
  br i1 %14, label %15, label %31

15:                                               ; preds = %10
  %16 = tail call ptr @pnstrdup(ptr noundef nonnull %0, i64 noundef %1) #18
  %17 = load i8, ptr %16, align 1
  %.not2834.i = icmp eq i8 %17, 0
  br i1 %.not2834.i, label %asc_initcap.exit, label %.lr.ph.i

.lr.ph.i:                                         ; preds = %15, %23
  %18 = phi i8 [ %30, %23 ], [ %17, %15 ]
  %.02336.i = phi i1 [ %28, %23 ], [ true, %15 ]
  %.02435.i = phi ptr [ %29, %23 ], [ %16, %15 ]
  br i1 %.02336.i, label %21, label %19

19:                                               ; preds = %.lr.ph.i
  %20 = tail call zeroext i8 @pg_ascii_tolower(i8 noundef zeroext %18) #18
  br label %23

21:                                               ; preds = %.lr.ph.i
  %22 = tail call zeroext i8 @pg_ascii_toupper(i8 noundef zeroext %18) #18
  br label %23

23:                                               ; preds = %21, %19
  %storemerge.i = phi i8 [ %22, %21 ], [ %20, %19 ]
  store i8 %storemerge.i, ptr %.02435.i, align 1
  %24 = and i8 %storemerge.i, -33
  %25 = add i8 %24, -91
  %or.cond33.i = icmp ult i8 %25, -26
  %26 = sext i8 %storemerge.i to i32
  %27 = add nsw i32 %26, -58
  %.not32.i = icmp ult i32 %27, -10
  %28 = select i1 %or.cond33.i, i1 %.not32.i, i1 false
  %29 = getelementptr inbounds nuw i8, ptr %.02435.i, i64 1
  %30 = load i8, ptr %29, align 1
  %.not28.i = icmp eq i8 %30, 0
  br i1 %.not28.i, label %asc_initcap.exit, label %.lr.ph.i, !llvm.loop !9

31:                                               ; preds = %10
  %32 = add i64 %1, 1
  %33 = tail call ptr @palloc(i64 noundef %32) #18
  %34 = tail call i64 @pg_strtitle(ptr noundef %33, i64 noundef %32, ptr noundef nonnull %0, i64 noundef %1, ptr noundef nonnull %11) #18
  %35 = add i64 %34, 1
  %36 = icmp ugt i64 %35, %32
  br i1 %36, label %37, label %asc_initcap.exit

37:                                               ; preds = %31
  %38 = tail call ptr @repalloc(ptr noundef %33, i64 noundef %35) #18
  %39 = tail call i64 @pg_strtitle(ptr noundef %38, i64 noundef %35, ptr noundef nonnull %0, i64 noundef %1, ptr noundef nonnull %11) #18
  br label %asc_initcap.exit

asc_initcap.exit:                                 ; preds = %23, %15, %37, %31, %3
  %.027 = phi ptr [ null, %3 ], [ %38, %37 ], [ %33, %31 ], [ %16, %15 ], [ %16, %23 ]
  ret ptr %.027
}